target datalayout = "e-m:e-p270:32:32-p271:32:32-p272:64:64-i64:64-i128:128-f80:128-n8:16:32:64-S128"
target triple = "x86_64-pc-linux-gnu"

%"class.std::__shared_count" = type { ptr }
%"class.pxrInternal_v0_24__pxrReserved__::UsdImagingDataSourceMapped::AttributeMappings" = type { %"class.std::vector", %"class.std::shared_ptr.4" }
%"class.std::vector" = type { %"struct.std::_Vector_base" }
%"struct.std::_Vector_base" = type { %"struct.std::_Vector_base<pxrInternal_v0_24__pxrReserved__::UsdImagingDataSourceMapped::AttributeMapping, std::allocator<pxrInternal_v0_24__pxrReserved__::UsdImagingDataSourceMapped::AttributeMapping>>::_Vector_impl" }
%"struct.std::_Vector_base<pxrInternal_v0_24__pxrReserved__::UsdImagingDataSourceMapped::AttributeMapping, std::allocator<pxrInternal_v0_24__pxrReserved__::UsdImagingDataSourceMapped::AttributeMapping>>::_Vector_impl" = type { %"struct.std::_Vector_base<pxrInternal_v0_24__pxrReserved__::UsdImagingDataSourceMapped::AttributeMapping, std::allocator<pxrInternal_v0_24__pxrReserved__::UsdImagingDataSourceMapped::AttributeMapping>>::_Vector_impl_data" }
%"struct.std::_Vector_base<pxrInternal_v0_24__pxrReserved__::UsdImagingDataSourceMapped::AttributeMapping, std::allocator<pxrInternal_v0_24__pxrReserved__::UsdImagingDataSourceMapped::AttributeMapping>>::_Vector_impl_data" = type { ptr, ptr, ptr }
%"class.std::shared_ptr.4" = type { %"class.std::__shared_ptr.5" }
%"class.std::__shared_ptr.5" = type { ptr, %"class.std::__shared_count" }

@__dso_handle = external hidden global i8
@_ZZN32pxrInternal_v0_24__pxrReserved__12_GLOBAL__N_112_GetMappingsEvE6result = internal global %"class.pxrInternal_v0_24__pxrReserved__::UsdImagingDataSourceMapped::AttributeMappings" zeroinitializer, align 8
@_ZGVZN32pxrInternal_v0_24__pxrReserved__12_GLOBAL__N_112_GetMappingsEvE6result = internal global i64 0, align 8

; Function Attrs: mustprogress uwtable
define internal noundef nonnull align 8 dereferenceable(40) ptr @_ZN32pxrInternal_v0_24__pxrReserved__12_GLOBAL__N_112_GetMappingsEv() #0 personality ptr @__gxx_personality_v0 {
  %1 = alloca %"class.std::vector", align 8
  %2 = alloca ptr, align 8
  %3 = alloca i32, align 4
  %4 = load atomic i8, ptr @_ZGVZN32pxrInternal_v0_24__pxrReserved__12_GLOBAL__N_112_GetMappingsEvE6result acquire, align 8
  %5 = icmp eq i8 %4, 0
  br i1 %5, label %6, label %15, !prof !4

6:                                                ; preds = %0
  %7 = call i32 @__cxa_guard_acquire(ptr @_ZGVZN32pxrInternal_v0_24__pxrReserved__12_GLOBAL__N_112_GetMappingsEvE6result) #5
  %8 = icmp ne i32 %7, 0
  br i1 %8, label %9, label %15

9:                                                ; preds = %6
  invoke void @_ZN32pxrInternal_v0_24__pxrReserved__12_GLOBAL__N_121_GetAttributeMappingsEv(ptr dead_on_unwind writable sret(%"class.std::vector") align 8 %1)
          to label %10 unwind label %16

10:                                               ; preds = %9
  %11 = invoke noundef nonnull align 8 dereferenceable(56) ptr @_ZN32pxrInternal_v0_24__pxrReserved__25UsdImagingGeomModelSchema17GetDefaultLocatorEv()
          to label %12 unwind label %20

12:                                               ; preds = %10
  invoke void @_ZN32pxrInternal_v0_24__pxrReserved__26UsdImagingDataSourceMapped17AttributeMappingsC1ERKSt6vectorINS0_16AttributeMappingESaIS3_EERKNS_19HdDataSourceLocatorE(ptr noundef nonnull align 8 dereferenceable(40) @_ZZN32pxrInternal_v0_24__pxrReserved__12_GLOBAL__N_112_GetMappingsEvE6result, ptr noundef nonnull align 8 dereferenceable(24) %1, ptr noundef nonnull align 8 dereferenceable(56) %11)
          to label %13 unwind label %20

13:                                               ; preds = %12
  call void @_ZNSt6vectorIN32pxrInternal_v0_24__pxrReserved__26UsdImagingDataSourceMapped16AttributeMappingESaIS2_EED2Ev(ptr noundef nonnull align 8 dereferenceable(24) %1) #5
  %14 = call i32 @__cxa_atexit(ptr @_ZN32pxrInternal_v0_24__pxrReserved__26UsdImagingDataSourceMapped17AttributeMappingsD1Ev, ptr @_ZZN32pxrInternal_v0_24__pxrReserved__12_GLOBAL__N_112_GetMappingsEvE6result, ptr @__dso_handle) #5
  call void @__cxa_guard_release(ptr @_ZGVZN32pxrInternal_v0_24__pxrReserved__12_GLOBAL__N_112_GetMappingsEvE6result) #5
  br label %15

15:                                               ; preds = %13, %6, %0
  ret ptr @_ZZN32pxrInternal_v0_24__pxrReserved__12_GLOBAL__N_112_GetMappingsEvE6result

16:                                               ; preds = %9
  %17 = landingpad { ptr, i32 }
          cleanup
  %18 = extractvalue { ptr, i32 } %17, 0
  store ptr %18, ptr %2, align 8
  %19 = extractvalue { ptr, i32 } %17, 1
  store i32 %19, ptr %3, align 4
  br label %24

20:                                               ; preds = %12, %10
  %21 = landingpad { ptr, i32 }
          cleanup
  %22 = extractvalue { ptr, i32 } %21, 0
  store ptr %22, ptr %2, align 8
  %23 = extractvalue { ptr, i32 } %21, 1
  store i32 %23, ptr %3, align 4
  call void @_ZNSt6vectorIN32pxrInternal_v0_24__pxrReserved__26UsdImagingDataSourceMapped16AttributeMappingESaIS2_EED2Ev(ptr noundef nonnull align 8 dereferenceable(24) %1) #5
  br label %24

24:                                               ; preds = %20, %16
  call void @__cxa_guard_abort(ptr @_ZGVZN32pxrInternal_v0_24__pxrReserved__12_GLOBAL__N_112_GetMappingsEvE6result) #5
  br label %25

25:                                               ; preds = %24
  %26 = load ptr, ptr %2, align 8
  %27 = load i32, ptr %3, align 4
  %28 = insertvalue { ptr, i32 } poison, ptr %26, 0
  %29 = insertvalue { ptr, i32 } %28, i32 %27, 1
  resume { ptr, i32 } %29
}